target datalayout = "e-m:e-p270:32:32-p271:32:32-p272:64:64-i64:64-i128:128-f80:128-n8:16:32:64-S128"
target triple = "x86_64-pc-linux-gnu"

@.str.5 = private unnamed_addr constant [22 x i8] c"Can't rename path: %s\00", align 1

; Function Attrs: nounwind uwtable
define hidden zeroext i1 @SDL_SYS_RenamePath(ptr noundef %0, ptr noundef %1) #0 {
  %3 = alloca i1, align 1
  %4 = alloca ptr, align 8
  %5 = alloca ptr, align 8
  store ptr %0, ptr %4, align 8
  store ptr %1, ptr %5, align 8
  %6 = load ptr, ptr %4, align 8
  %7 = load ptr, ptr %5, align 8
  %8 = call i32 @rename(ptr noundef %6, ptr noundef %7) #6
  %9 = icmp slt i32 %8, 0
  br i1 %9, label %10, label %15

10:                                               ; preds = %2
  %11 = call ptr @__errno_location() #7
  %12 = load i32, ptr %11, align 4
  %13 = call ptr @strerror(i32 noundef %12) #6
  %14 = call zeroext i1 (ptr, ...) @SDL_SetError_REAL(ptr noundef @.str.5, ptr noundef %13)
  store i1 %14, ptr %3, align 1
  br label %16

15:                                               ; preds = %2
  store i1 true, ptr %3, align 1
  br label %16

16:                                               ; preds = %15, %10
  %17 = load i1, ptr %3, align 1
  ret i1 %17
}