; Function Attrs: nounwind uwtable
define hidden zeroext i1 @SDL_SYS_RenamePath(ptr noundef readonly captures(none) %0, ptr noundef readonly captures(none) %1) local_unnamed_addr #0 {
  %3 = tail call i32 @rename(ptr noundef %0, ptr noundef %1) #7
  %4 = icmp slt i32 %3, 0
  br i1 %4, label %5, label %10

5:                                                ; preds = %2
  %6 = tail call ptr @__errno_location() #8
  %7 = load i32, ptr %6, align 4
  %8 = tail call ptr @strerror(i32 noundef %7) #7
  %9 = tail call zeroext i1 (ptr, ...) @SDL_SetError_REAL(ptr noundef nonnull @.str.5, ptr noundef %8) #7
  br label %10

10:                                               ; preds = %2, %5
  %.0 = phi i1 [ %9, %5 ], [ true, %2 ]
  ret i1 %.0
}